; Function Attrs: mustprogress uwtable
define noundef nonnull align 8 dereferenceable(16) ptr @_ZN2cv4gapi2ie8PyParams10constInputERKNSt7__cxx1112basic_stringIcSt11char_traitsIcESaIcEEERKNS_3MatENS1_7TraitAsE(ptr noundef nonnull readonly returned align 8 dereferenceable(16) %0, ptr noundef nonnull align 8 dereferenceable(32) %1, ptr noundef nonnull align 8 dereferenceable(96) %2, i32 noundef %3) local_unnamed_addr #3 align 2 personality ptr @__gxx_personality_v0 {
  %5 = alloca %"struct.std::pair.45", align 8
  %6 = load ptr, ptr %0, align 8
  call void @llvm.lifetime.start.p0(i64 104, ptr nonnull %5)
  call void @_ZN2cv3MatC1ERKS0_(ptr noundef nonnull align 8 dereferenceable(96) %5, ptr noundef nonnull align 8 dereferenceable(96) %2)
  %7 = getelementptr inbounds i8, ptr %5, i64 96
  store i32 %3, ptr %7, align 8
  %8 = getelementptr inbounds i8, ptr %6, i64 144
  %9 = invoke noundef nonnull align 8 dereferenceable(100) ptr @_ZNSt8__detail9_Map_baseINSt7__cxx1112basic_stringIcSt11char_traitsIcESaIcEEESt4pairIKS6_S7_IN2cv3MatENS9_4gapi2ie7TraitAsEEESaISF_ENS_10_Select1stESt8equal_toIS6_ESt4hashIS6_ENS_18_Mod_range_hashingENS_20_Default_ranged_hashENS_20_Prime_rehash_policyENS_17_Hashtable_traitsILb1ELb0ELb1EEELb1EEixERS8_(ptr noundef nonnull align 1 dereferenceable(1) %8, ptr noundef nonnull align 8 dereferenceable(32) %1)
          to label %_ZNSt13unordered_mapINSt7__cxx1112basic_stringIcSt11char_traitsIcESaIcEEESt4pairIN2cv3MatENS7_4gapi2ie7TraitAsEESt4hashIS5_ESt8equal_toIS5_ESaIS6_IKS5_SC_EEEixERSH_.exit.i unwind label %11

_ZNSt13unordered_mapINSt7__cxx1112basic_stringIcSt11char_traitsIcESaIcEEESt4pairIN2cv3MatENS7_4gapi2ie7TraitAsEESt4hashIS5_ESt8equal_toIS5_ESaIS6_IKS5_SC_EEEixERSH_.exit.i: ; preds = %4
  %10 = invoke noundef nonnull align 8 dereferenceable(96) ptr @_ZN2cv3MataSEOS0_(ptr noundef nonnull align 8 dereferenceable(96) %9, ptr noundef nonnull align 8 dereferenceable(96) %5)
          to label %_ZN2cv4gapi2ie6ParamsINS0_7GenericEE10constInputERKNSt7__cxx1112basic_stringIcSt11char_traitsIcESaIcEEERKNS_3MatENS1_7TraitAsE.exit unwind label %11

11:                                               ; preds = %_ZNSt13unordered_mapINSt7__cxx1112basic_stringIcSt11char_traitsIcESaIcEEESt4pairIN2cv3MatENS7_4gapi2ie7TraitAsEESt4hashIS5_ESt8equal_toIS5_ESaIS6_IKS5_SC_EEEixERSH_.exit.i, %4
  %12 = landingpad { ptr, i32 }
          cleanup
  call void @_ZN2cv3MatD1Ev(ptr noundef nonnull align 8 dereferenceable(96) %5) #18
  resume { ptr, i32 } %12

_ZN2cv4gapi2ie6ParamsINS0_7GenericEE10constInputERKNSt7__cxx1112basic_stringIcSt11char_traitsIcESaIcEEERKNS_3MatENS1_7TraitAsE.exit: ; preds = %_ZNSt13unordered_mapINSt7__cxx1112basic_stringIcSt11char_traitsIcESaIcEEESt4pairIN2cv3MatENS7_4gapi2ie7TraitAsEESt4hashIS5_ESt8equal_toIS5_ESaIS6_IKS5_SC_EEEixERSH_.exit.i
  %13 = load i32, ptr %7, align 8
  %14 = getelementptr inbounds i8, ptr %9, i64 96
  store i32 %13, ptr %14, align 8
  call void @_ZN2cv3MatD1Ev(ptr noundef nonnull align 8 dereferenceable(96) %5) #18
  call void @llvm.lifetime.end.p0(i64 104, ptr nonnull %5)
  ret ptr %0
}